target datalayout = "e-m:e-p270:32:32-p271:32:32-p272:64:64-i64:64-i128:128-f80:128-n8:16:32:64-S128"
target triple = "x86_64-pc-linux-gnu"

%struct._packet_info = type { ptr, ptr, i32, i32, %struct.nstime_t, %struct.nstime_t, %struct.nstime_t, i8, ptr, ptr, ptr, ptr, %struct._address, %struct._address, %struct._address, %struct._address, %struct._address, %struct._address, i32, ptr, i8, [3 x i8], %struct.anon, i32, i32, i32, i32, ptr, i8, ptr, ptr, i16, i16, i32, i32, i16, i32, i32, ptr, ptr, ptr, i8, i8, i16, i16, i16, i32, i16, i16, ptr, ptr, ptr, ptr, ptr, i32, i32 }
%struct.nstime_t = type { i64, i32 }
%struct._address = type { i32, i32, ptr, ptr }
%struct.anon = type { i8, [3 x i8] }

@tds_desegment = internal global i8 1, align 1
@tds_tcp_ports = internal global ptr null, align 8

; Function Attrs: null_pointer_is_valid sspstrong uwtable
define internal i32 @dissect_tds(ptr noundef %0, ptr noundef %1, ptr noundef %2, ptr noundef %3) #0 {
  %5 = alloca ptr, align 8
  %6 = alloca ptr, align 8
  %7 = alloca ptr, align 8
  %8 = alloca ptr, align 8
  store ptr %0, ptr %5, align 8
  store ptr %1, ptr %6, align 8
  store ptr %2, ptr %7, align 8
  store ptr %3, ptr %8, align 8
  %9 = load ptr, ptr %5, align 8
  %10 = load ptr, ptr %6, align 8
  %11 = load ptr, ptr %7, align 8
  %12 = load i8, ptr @tds_desegment, align 1, !range !6, !noundef !7
  %13 = trunc i8 %12 to i1
  %14 = load ptr, ptr %8, align 8
  call void @tcp_dissect_pdus(ptr noundef %9, ptr noundef %10, ptr noundef %11, i1 noundef zeroext %13, i32 noundef 8, ptr noundef @get_tds_pdu_len, ptr noundef @dissect_tds_pdu, ptr noundef %14)
  %15 = load ptr, ptr %5, align 8
  %16 = call i32 @tvb_captured_length(ptr noundef %15)
  ret i32 %16
}

; Function Attrs: null_pointer_is_valid sspstrong uwtable
define internal zeroext i1 @netlib_check_login_pkt(ptr noundef %0, i32 noundef %1, ptr noundef %2, i8 noundef zeroext %3) #0 {
  %5 = alloca i1, align 1
  %6 = alloca ptr, align 8
  %7 = alloca i32, align 4
  %8 = alloca ptr, align 8
  %9 = alloca i8, align 1
  %10 = alloca i32, align 4
  %11 = alloca i32, align 4
  %12 = alloca i32, align 4
  store ptr %0, ptr %6, align 8
  store i32 %1, ptr %7, align 4
  store ptr %2, ptr %8, align 8
  store i8 %3, ptr %9, align 1
  call void @llvm.lifetime.start.p0(i64 4, ptr %10) #11
  call void @llvm.lifetime.start.p0(i64 4, ptr %11) #11
  %13 = load ptr, ptr %6, align 8
  %14 = call i32 @tvb_captured_length(ptr noundef %13)
  %15 = load i32, ptr %7, align 4
  %16 = sub i32 %14, %15
  store i32 %16, ptr %11, align 4
  %17 = load i8, ptr %9, align 1
  %18 = zext i8 %17 to i32
  %19 = icmp eq i32 %18, 2
  br i1 %19, label %20, label %59

20:                                               ; preds = %4
  %21 = load i32, ptr %11, align 4
  %22 = icmp ult i32 %21, 467
  br i1 %22, label %23, label %24

23:                                               ; preds = %20
  store i1 false, ptr %5, align 1
  store i32 1, ptr %12, align 4
  br label %110

24:                                               ; preds = %20
  %25 = load ptr, ptr %6, align 8
  %26 = call zeroext i8 @tvb_get_uint8(ptr noundef %25, i32 noundef 466)
  %27 = zext i8 %26 to i32
  store i32 %27, ptr %10, align 4
  %28 = load i32, ptr %10, align 4
  %29 = icmp ne i32 %28, 4
  br i1 %29, label %30, label %34

30:                                               ; preds = %24
  %31 = load i32, ptr %10, align 4
  %32 = icmp ne i32 %31, 5
  br i1 %32, label %33, label %34

33:                                               ; preds = %30
  store i1 false, ptr %5, align 1
  store i32 1, ptr %12, align 4
  br label %110

34:                                               ; preds = %30, %24
  %35 = load ptr, ptr %6, align 8
  %36 = call zeroext i8 @tvb_get_uint8(ptr noundef %35, i32 noundef 38)
  %37 = zext i8 %36 to i32
  %38 = icmp sgt i32 %37, 30
  br i1 %38, label %39, label %40

39:                                               ; preds = %34
  store i1 false, ptr %5, align 1
  store i32 1, ptr %12, align 4
  br label %110

40:                                               ; preds = %34
  %41 = load ptr, ptr %6, align 8
  %42 = call zeroext i8 @tvb_get_uint8(ptr noundef %41, i32 noundef 69)
  %43 = zext i8 %42 to i32
  %44 = icmp sgt i32 %43, 30
  br i1 %44, label %45, label %46

45:                                               ; preds = %40
  store i1 false, ptr %5, align 1
  store i32 1, ptr %12, align 4
  br label %110

46:                                               ; preds = %40
  %47 = load ptr, ptr %6, align 8
  %48 = call zeroext i8 @tvb_get_uint8(ptr noundef %47, i32 noundef 100)
  %49 = zext i8 %48 to i32
  %50 = icmp sgt i32 %49, 30
  br i1 %50, label %51, label %52

51:                                               ; preds = %46
  store i1 false, ptr %5, align 1
  store i32 1, ptr %12, align 4
  br label %110

52:                                               ; preds = %46
  %53 = load ptr, ptr %6, align 8
  %54 = call zeroext i8 @tvb_get_uint8(ptr noundef %53, i32 noundef 131)
  %55 = zext i8 %54 to i32
  %56 = icmp sgt i32 %55, 30
  br i1 %56, label %57, label %58

57:                                               ; preds = %52
  store i1 false, ptr %5, align 1
  store i32 1, ptr %12, align 4
  br label %110

58:                                               ; preds = %52
  br label %109

59:                                               ; preds = %4
  %60 = load i8, ptr %9, align 1
  %61 = zext i8 %60 to i32
  %62 = icmp eq i32 %61, 16
  br i1 %62, label %63, label %78

63:                                               ; preds = %59
  %64 = load i32, ptr %11, align 4
  %65 = icmp ult i32 %64, 16
  br i1 %65, label %66, label %67

66:                                               ; preds = %63
  store i1 false, ptr %5, align 1
  store i32 1, ptr %12, align 4
  br label %110

67:                                               ; preds = %63
  %68 = load ptr, ptr %6, align 8
  %69 = call zeroext i8 @tvb_get_uint8(ptr noundef %68, i32 noundef 15)
  %70 = zext i8 %69 to i32
  store i32 %70, ptr %10, align 4
  %71 = load i32, ptr %10, align 4
  %72 = icmp ne i32 %71, 112
  br i1 %72, label %73, label %77

73:                                               ; preds = %67
  %74 = load i32, ptr %10, align 4
  %75 = icmp ne i32 %74, 128
  br i1 %75, label %76, label %77

76:                                               ; preds = %73
  store i1 false, ptr %5, align 1
  store i32 1, ptr %12, align 4
  br label %110

77:                                               ; preds = %73, %67
  br label %108

78:                                               ; preds = %59
  %79 = load i8, ptr %9, align 1
  %80 = zext i8 %79 to i32
  %81 = icmp eq i32 %80, 15
  br i1 %81, label %82, label %93

82:                                               ; preds = %78
  %83 = load i32, ptr %11, align 4
  %84 = icmp ult i32 %83, 9
  br i1 %84, label %85, label %86

85:                                               ; preds = %82
  store i1 false, ptr %5, align 1
  store i32 1, ptr %12, align 4
  br label %110

86:                                               ; preds = %82
  %87 = load ptr, ptr %6, align 8
  %88 = call zeroext i8 @tvb_get_uint8(ptr noundef %87, i32 noundef 8)
  %89 = zext i8 %88 to i32
  %90 = icmp ne i32 %89, 33
  br i1 %90, label %91, label %92

91:                                               ; preds = %86
  store i1 false, ptr %5, align 1
  store i32 1, ptr %12, align 4
  br label %110

92:                                               ; preds = %86
  br label %107

93:                                               ; preds = %78
  %94 = load ptr, ptr @tds_tcp_ports, align 8
  %95 = load ptr, ptr %8, align 8
  %96 = getelementptr inbounds nuw %struct._packet_info, ptr %95, i32 0, i32 24
  %97 = load i32, ptr %96, align 4
  %98 = call zeroext i1 @value_is_in_range(ptr noundef %94, i32 noundef %97)
  br i1 %98, label %106, label %99

99:                                               ; preds = %93
  %100 = load ptr, ptr @tds_tcp_ports, align 8
  %101 = load ptr, ptr %8, align 8
  %102 = getelementptr inbounds nuw %struct._packet_info, ptr %101, i32 0, i32 25
  %103 = load i32, ptr %102, align 8
  %104 = call zeroext i1 @value_is_in_range(ptr noundef %100, i32 noundef %103)
  br i1 %104, label %106, label %105

105:                                              ; preds = %99
  store i1 false, ptr %5, align 1
  store i32 1, ptr %12, align 4
  br label %110

106:                                              ; preds = %99, %93
  br label %107

107:                                              ; preds = %106, %92
  br label %108

108:                                              ; preds = %107, %77
  br label %109

109:                                              ; preds = %108, %58
  store i1 true, ptr %5, align 1
  store i32 1, ptr %12, align 4
  br label %110

110:                                              ; preds = %109, %105, %91, %85, %76, %66, %57, %51, %45, %39, %33, %23
  call void @llvm.lifetime.end.p0(i64 4, ptr %11) #11
  call void @llvm.lifetime.end.p0(i64 4, ptr %10) #11
  %111 = load i1, ptr %5, align 1
  ret i1 %111
}

; Function Attrs: null_pointer_is_valid sspstrong uwtable
define internal zeroext i1 @dissect_tds_tcp_heur(ptr noundef %0, ptr noundef %1, ptr noundef %2, ptr noundef %3) #0 {
  %5 = alloca i1, align 1
  %6 = alloca ptr, align 8
  %7 = alloca ptr, align 8
  %8 = alloca ptr, align 8
  %9 = alloca ptr, align 8
  %10 = alloca i32, align 4
  %11 = alloca i8, align 1
  %12 = alloca i8, align 1
  %13 = alloca i16, align 2
  %14 = alloca i32, align 4
  store ptr %0, ptr %6, align 8
  store ptr %1, ptr %7, align 8
  store ptr %2, ptr %8, align 8
  store ptr %3, ptr %9, align 8
  call void @llvm.lifetime.start.p0(i64 4, ptr %10) #11
  store i32 0, ptr %10, align 4
  call void @llvm.lifetime.start.p0(i64 1, ptr %11) #11
  call void @llvm.lifetime.start.p0(i64 1, ptr %12) #11
  call void @llvm.lifetime.start.p0(i64 2, ptr %13) #11
  %15 = load ptr, ptr %6, align 8
  %16 = call i32 @tvb_reported_length(ptr noundef %15)
  %17 = icmp ult i32 %16, 8
  br i1 %17, label %18, label %19

18:                                               ; preds = %4
  store i1 false, ptr %5, align 1
  store i32 1, ptr %14, align 4
  br label %94

19:                                               ; preds = %4
  %20 = load ptr, ptr %6, align 8
  %21 = load i32, ptr %10, align 4
  %22 = call zeroext i8 @tvb_get_uint8(ptr noundef %20, i32 noundef %21)
  store i8 %22, ptr %11, align 1
  %23 = load i8, ptr %11, align 1
  %24 = zext i8 %23 to i32
  %25 = icmp sge i32 %24, 1
  br i1 %25, label %26, label %30

26:                                               ; preds = %19
  %27 = load i8, ptr %11, align 1
  %28 = zext i8 %27 to i32
  %29 = icmp slt i32 %28, 19
  br i1 %29, label %35, label %30

30:                                               ; preds = %26, %19
  %31 = load i8, ptr %11, align 1
  %32 = zext i8 %31 to i32
  %33 = icmp eq i32 %32, 23
  br i1 %33, label %35, label %34

34:                                               ; preds = %30
  store i1 false, ptr %5, align 1
  store i32 1, ptr %14, align 4
  br label %94

35:                                               ; preds = %30, %26
  %36 = load ptr, ptr %6, align 8
  %37 = load i32, ptr %10, align 4
  %38 = add i32 %37, 1
  %39 = call zeroext i8 @tvb_get_uint8(ptr noundef %36, i32 noundef %38)
  store i8 %39, ptr %12, align 1
  %40 = load i8, ptr %12, align 1
  %41 = zext i8 %40 to i32
  %42 = icmp eq i32 %41, 0
  br i1 %42, label %72, label %43

43:                                               ; preds = %35
  %44 = load i8, ptr %12, align 1
  %45 = zext i8 %44 to i32
  %46 = icmp eq i32 %45, 1
  br i1 %46, label %72, label %47

47:                                               ; preds = %43
  %48 = load i8, ptr %12, align 1
  %49 = zext i8 %48 to i32
  %50 = icmp eq i32 %49, 2
  br i1 %50, label %72, label %51

51:                                               ; preds = %47
  %52 = load i8, ptr %12, align 1
  %53 = zext i8 %52 to i32
  %54 = icmp eq i32 %53, 3
  br i1 %54, label %72, label %55

55:                                               ; preds = %51
  %56 = load i8, ptr %12, align 1
  %57 = zext i8 %56 to i32
  %58 = icmp eq i32 %57, 5
  br i1 %58, label %72, label %59

59:                                               ; preds = %55
  %60 = load i8, ptr %12, align 1
  %61 = zext i8 %60 to i32
  %62 = icmp eq i32 %61, 9
  br i1 %62, label %72, label %63

63:                                               ; preds = %59
  %64 = load i8, ptr %12, align 1
  %65 = zext i8 %64 to i32
  %66 = icmp eq i32 %65, 17
  br i1 %66, label %72, label %67

67:                                               ; preds = %63
  %68 = load i8, ptr %12, align 1
  %69 = zext i8 %68 to i32
  %70 = icmp eq i32 %69, 33
  br i1 %70, label %72, label %71

71:                                               ; preds = %67
  store i1 false, ptr %5, align 1
  store i32 1, ptr %14, align 4
  br label %94

72:                                               ; preds = %67, %63, %59, %55, %51, %47, %43, %35
  %73 = load ptr, ptr %6, align 8
  %74 = load i32, ptr %10, align 4
  %75 = add i32 %74, 2
  %76 = call zeroext i16 @tvb_get_ntohs(ptr noundef %73, i32 noundef %75)
  store i16 %76, ptr %13, align 2
  %77 = load i16, ptr %13, align 2
  %78 = zext i16 %77 to i32
  %79 = icmp slt i32 %78, 8
  br i1 %79, label %80, label %81

80:                                               ; preds = %72
  store i1 false, ptr %5, align 1
  store i32 1, ptr %14, align 4
  br label %94

81:                                               ; preds = %72
  %82 = load ptr, ptr %6, align 8
  %83 = load i32, ptr %10, align 4
  %84 = load ptr, ptr %7, align 8
  %85 = load i8, ptr %11, align 1
  %86 = call zeroext i1 @netlib_check_login_pkt(ptr noundef %82, i32 noundef %83, ptr noundef %84, i8 noundef zeroext %85)
  br i1 %86, label %88, label %87

87:                                               ; preds = %81
  store i1 false, ptr %5, align 1
  store i32 1, ptr %14, align 4
  br label %94

88:                                               ; preds = %81
  %89 = load ptr, ptr %6, align 8
  %90 = load ptr, ptr %7, align 8
  %91 = load ptr, ptr %8, align 8
  %92 = load ptr, ptr %9, align 8
  %93 = call i32 @dissect_tds(ptr noundef %89, ptr noundef %90, ptr noundef %91, ptr noundef %92)
  store i1 true, ptr %5, align 1
  store i32 1, ptr %14, align 4
  br label %94

94:                                               ; preds = %88, %87, %80, %71, %34, %18
  call void @llvm.lifetime.end.p0(i64 2, ptr %13) #11
  call void @llvm.lifetime.end.p0(i64 1, ptr %12) #11
  call void @llvm.lifetime.end.p0(i64 1, ptr %11) #11
  call void @llvm.lifetime.end.p0(i64 4, ptr %10) #11
  %95 = load i1, ptr %5, align 1
  ret i1 %95
}