; Function Attrs: null_pointer_is_valid sspstrong uwtable
define internal noundef zeroext i1 @dissect_tds_tcp_heur(ptr noundef %0, ptr noundef %1, ptr noundef %2, ptr noundef %3) #0 {
  %5 = tail call i32 @tvb_reported_length(ptr noundef %0)
  %6 = icmp ult i32 %5, 8
  br i1 %6, label %netlib_check_login_pkt.exit.thread, label %7

7:                                                ; preds = %4
  %8 = tail call zeroext i8 @tvb_get_uint8(ptr noundef %0, i32 noundef 0)
  %9 = add i8 %8, -1
  %or.cond = icmp ult i8 %9, 18
  %10 = icmp eq i8 %8, 23
  %or.cond5 = or i1 %10, %or.cond
  br i1 %or.cond5, label %11, label %netlib_check_login_pkt.exit.thread

11:                                               ; preds = %7
  %12 = tail call zeroext i8 @tvb_get_uint8(ptr noundef %0, i32 noundef 1)
  switch i8 %12, label %netlib_check_login_pkt.exit.thread [
    i8 33, label %13
    i8 17, label %13
    i8 9, label %13
    i8 5, label %13
    i8 3, label %13
    i8 2, label %13
    i8 1, label %13
    i8 0, label %13
  ]

13:                                               ; preds = %11, %11, %11, %11, %11, %11, %11, %11
  %14 = tail call zeroext i16 @tvb_get_ntohs(ptr noundef %0, i32 noundef 2)
  %15 = icmp ult i16 %14, 8
  br i1 %15, label %netlib_check_login_pkt.exit.thread, label %16

16:                                               ; preds = %13
  %17 = tail call i32 @tvb_captured_length(ptr noundef %0)
  switch i8 %8, label %41 [
    i8 2, label %18
    i8 16, label %35
    i8 15, label %37
  ]

18:                                               ; preds = %16
  %19 = icmp ult i32 %17, 467
  br i1 %19, label %netlib_check_login_pkt.exit.thread, label %20

20:                                               ; preds = %18
  %21 = tail call zeroext i8 @tvb_get_uint8(ptr noundef %0, i32 noundef 466)
  %22 = add i8 %21, -6
  %or.cond.i = icmp ult i8 %22, -2
  br i1 %or.cond.i, label %netlib_check_login_pkt.exit.thread, label %23

23:                                               ; preds = %20
  %24 = tail call zeroext i8 @tvb_get_uint8(ptr noundef %0, i32 noundef 38)
  %25 = icmp ugt i8 %24, 30
  br i1 %25, label %netlib_check_login_pkt.exit.thread, label %26

26:                                               ; preds = %23
  %27 = tail call zeroext i8 @tvb_get_uint8(ptr noundef %0, i32 noundef 69)
  %28 = icmp ugt i8 %27, 30
  br i1 %28, label %netlib_check_login_pkt.exit.thread, label %29

29:                                               ; preds = %26
  %30 = tail call zeroext i8 @tvb_get_uint8(ptr noundef %0, i32 noundef 100)
  %31 = icmp ugt i8 %30, 30
  br i1 %31, label %netlib_check_login_pkt.exit.thread, label %32

32:                                               ; preds = %29
  %33 = tail call zeroext i8 @tvb_get_uint8(ptr noundef %0, i32 noundef 131)
  %34 = icmp ugt i8 %33, 30
  br i1 %34, label %netlib_check_login_pkt.exit.thread, label %netlib_check_login_pkt.exit.thread54

35:                                               ; preds = %16
  %36 = icmp ult i32 %17, 16
  br i1 %36, label %netlib_check_login_pkt.exit.thread, label %netlib_check_login_pkt.exit

37:                                               ; preds = %16
  %38 = icmp ult i32 %17, 9
  br i1 %38, label %netlib_check_login_pkt.exit.thread, label %39

39:                                               ; preds = %37
  %40 = tail call zeroext i8 @tvb_get_uint8(ptr noundef %0, i32 noundef 8)
  %.not.i = icmp eq i8 %40, 33
  br i1 %.not.i, label %netlib_check_login_pkt.exit.thread54, label %netlib_check_login_pkt.exit.thread

41:                                               ; preds = %16
  %42 = load ptr, ptr @tds_tcp_ports, align 8
  %43 = getelementptr inbounds nuw i8, ptr %1, i64 284
  %44 = load i32, ptr %43, align 4
  %45 = tail call zeroext i1 @value_is_in_range(ptr noundef %42, i32 noundef %44)
  br i1 %45, label %netlib_check_login_pkt.exit.thread54, label %46

46:                                               ; preds = %41
  %47 = load ptr, ptr @tds_tcp_ports, align 8
  %48 = getelementptr inbounds nuw i8, ptr %1, i64 288
  %49 = load i32, ptr %48, align 8
  %50 = tail call zeroext i1 @value_is_in_range(ptr noundef %47, i32 noundef %49)
  br i1 %50, label %netlib_check_login_pkt.exit.thread54, label %netlib_check_login_pkt.exit.thread

netlib_check_login_pkt.exit:                      ; preds = %35
  %51 = tail call zeroext i8 @tvb_get_uint8(ptr noundef %0, i32 noundef 15)
  switch i8 %51, label %netlib_check_login_pkt.exit.thread [
    i8 -128, label %netlib_check_login_pkt.exit.thread54
    i8 112, label %netlib_check_login_pkt.exit.thread54
  ]

netlib_check_login_pkt.exit.thread54:             ; preds = %netlib_check_login_pkt.exit, %netlib_check_login_pkt.exit, %46, %41, %39, %32
  %52 = load i8, ptr @tds_desegment, align 1, !range !6, !noundef !7
  %53 = trunc nuw i8 %52 to i1
  tail call void @tcp_dissect_pdus(ptr noundef %0, ptr noundef %1, ptr noundef %2, i1 noundef zeroext %53, i32 noundef 8, ptr noundef nonnull @get_tds_pdu_len, ptr noundef nonnull @dissect_tds_pdu, ptr noundef %3)
  %54 = tail call i32 @tvb_captured_length(ptr noundef %0)
  br label %netlib_check_login_pkt.exit.thread

netlib_check_login_pkt.exit.thread:               ; preds = %netlib_check_login_pkt.exit, %46, %39, %37, %35, %32, %29, %26, %23, %20, %18, %13, %11, %7, %4, %netlib_check_login_pkt.exit.thread54
  %.0 = phi i1 [ true, %netlib_check_login_pkt.exit.thread54 ], [ false, %4 ], [ false, %7 ], [ false, %11 ], [ false, %13 ], [ false, %netlib_check_login_pkt.exit ], [ false, %18 ], [ false, %20 ], [ false, %23 ], [ false, %26 ], [ false, %29 ], [ false, %32 ], [ false, %35 ], [ false, %37 ], [ false, %39 ], [ false, %46 ]
  ret i1 %.0
}